target datalayout = "e-m:e-p270:32:32-p271:32:32-p272:64:64-i64:64-i128:128-f80:128-n8:16:32:64-S128"
target triple = "x86_64-pc-linux-gnu"

%"class.duckdb_re2::Regexp" = type { i8, i8, i16, i16, i16, %union.anon, ptr, %union.anon.0 }
%union.anon = type { ptr }
%union.anon.0 = type { %struct.anon.1 }
%struct.anon.1 = type { i32, ptr }
%struct.anon.3 = type { ptr, ptr }
%"class.duckdb_re2::CharClass" = type <{ i8, [3 x i8], i32, ptr, i32, [4 x i8] }>

; Function Attrs: mustprogress nounwind uwtable
define linkonce_odr hidden noundef zeroext i1 @_ZN10duckdb_re29CharClass4fullEv(ptr noundef nonnull align 8 dereferenceable(20) %0) #3 comdat align 2 {
  %2 = alloca ptr, align 8
  store ptr %0, ptr %2, align 8, !tbaa !51
  %3 = load ptr, ptr %2, align 8
  %4 = getelementptr inbounds nuw %"class.duckdb_re2::CharClass", ptr %3, i32 0, i32 2
  %5 = load i32, ptr %4, align 4, !tbaa !53
  %6 = icmp eq i32 %5, 1114112
  ret i1 %6
}

; Function Attrs: mustprogress nounwind uwtable
define linkonce_odr hidden noundef i32 @_ZN10duckdb_re26Regexp11parse_flagsEv(ptr noundef nonnull align 8 dereferenceable(40) %0) #3 comdat align 2 {
  %2 = alloca ptr, align 8
  store ptr %0, ptr %2, align 8, !tbaa !14
  %3 = load ptr, ptr %2, align 8
  %4 = getelementptr inbounds nuw %"class.duckdb_re2::Regexp", ptr %3, i32 0, i32 2
  %5 = load i16, ptr %4, align 2, !tbaa !102
  %6 = zext i16 %5 to i32
  ret i32 %6
}

; Function Attrs: mustprogress nounwind uwtable
define linkonce_odr hidden noundef zeroext i1 @_ZN10duckdb_re29CharClass5emptyEv(ptr noundef nonnull align 8 dereferenceable(20) %0) #3 comdat align 2 {
  %2 = alloca ptr, align 8
  store ptr %0, ptr %2, align 8, !tbaa !51
  %3 = load ptr, ptr %2, align 8
  %4 = getelementptr inbounds nuw %"class.duckdb_re2::CharClass", ptr %3, i32 0, i32 2
  %5 = load i32, ptr %4, align 4, !tbaa !53
  %6 = icmp eq i32 %5, 0
  ret i1 %6
}

; Function Attrs: mustprogress nounwind uwtable
define linkonce_odr hidden noundef ptr @_ZN10duckdb_re26Regexp2ccEv(ptr noundef nonnull align 8 dereferenceable(40) %0) #3 comdat align 2 {
  %2 = alloca ptr, align 8
  store ptr %0, ptr %2, align 8, !tbaa !14
  %3 = load ptr, ptr %2, align 8
  %4 = getelementptr inbounds nuw %"class.duckdb_re2::Regexp", ptr %3, i32 0, i32 7
  %5 = getelementptr inbounds nuw %struct.anon.3, ptr %4, i32 0, i32 0
  %6 = load ptr, ptr %5, align 8, !tbaa !26
  ret ptr %6
}

; Function Attrs: mustprogress uwtable
define hidden noundef ptr @_ZN10duckdb_re214SimplifyWalker17SimplifyCharClassEPNS_6RegexpE(ptr noundef %0) #0 align 2 personality ptr @__gxx_personality_v0 {
  %2 = alloca ptr, align 8
  %3 = alloca ptr, align 8
  %4 = alloca ptr, align 8
  %5 = alloca ptr, align 8
  %6 = alloca i32, align 4
  %7 = alloca i32, align 4
  store ptr %0, ptr %3, align 8, !tbaa !14
  call void @llvm.lifetime.start.p0(i64 8, ptr %4) #17
  %8 = load ptr, ptr %3, align 8, !tbaa !14
  %9 = call noundef ptr @_ZN10duckdb_re26Regexp2ccEv(ptr noundef nonnull align 8 dereferenceable(40) %8)
  store ptr %9, ptr %4, align 8, !tbaa !51
  %10 = load ptr, ptr %4, align 8, !tbaa !51
  %11 = call noundef zeroext i1 @_ZN10duckdb_re29CharClass5emptyEv(ptr noundef nonnull align 8 dereferenceable(20) %10)
  br i1 %11, label %12, label %22

12:                                               ; preds = %1
  %13 = call noalias noundef nonnull ptr @_Znwm(i64 noundef 40) #20
  %14 = load ptr, ptr %3, align 8, !tbaa !14
  %15 = invoke noundef i32 @_ZN10duckdb_re26Regexp11parse_flagsEv(ptr noundef nonnull align 8 dereferenceable(40) %14)
          to label %16 unwind label %18

16:                                               ; preds = %12
  invoke void @_ZN10duckdb_re26RegexpC1ENS_8RegexpOpENS0_10ParseFlagsE(ptr noundef nonnull align 8 dereferenceable(40) %13, i32 noundef 1, i32 noundef %15)
          to label %17 unwind label %18

17:                                               ; preds = %16
  store ptr %13, ptr %2, align 8
  store i32 1, ptr %7, align 4
  br label %38

18:                                               ; preds = %16, %12
  %19 = landingpad { ptr, i32 }
          cleanup
  %20 = extractvalue { ptr, i32 } %19, 0
  store ptr %20, ptr %5, align 8
  %21 = extractvalue { ptr, i32 } %19, 1
  store i32 %21, ptr %6, align 4
  call void @_ZdlPv(ptr noundef %13) #21
  br label %40

22:                                               ; preds = %1
  %23 = load ptr, ptr %4, align 8, !tbaa !51
  %24 = call noundef zeroext i1 @_ZN10duckdb_re29CharClass4fullEv(ptr noundef nonnull align 8 dereferenceable(20) %23)
  br i1 %24, label %25, label %35

25:                                               ; preds = %22
  %26 = call noalias noundef nonnull ptr @_Znwm(i64 noundef 40) #20
  %27 = load ptr, ptr %3, align 8, !tbaa !14
  %28 = invoke noundef i32 @_ZN10duckdb_re26Regexp11parse_flagsEv(ptr noundef nonnull align 8 dereferenceable(40) %27)
          to label %29 unwind label %31

29:                                               ; preds = %25
  invoke void @_ZN10duckdb_re26RegexpC1ENS_8RegexpOpENS0_10ParseFlagsE(ptr noundef nonnull align 8 dereferenceable(40) %26, i32 noundef 12, i32 noundef %28)
          to label %30 unwind label %31

30:                                               ; preds = %29
  store ptr %26, ptr %2, align 8
  store i32 1, ptr %7, align 4
  br label %38

31:                                               ; preds = %29, %25
  %32 = landingpad { ptr, i32 }
          cleanup
  %33 = extractvalue { ptr, i32 } %32, 0
  store ptr %33, ptr %5, align 8
  %34 = extractvalue { ptr, i32 } %32, 1
  store i32 %34, ptr %6, align 4
  call void @_ZdlPv(ptr noundef %26) #21
  br label %40

35:                                               ; preds = %22
  %36 = load ptr, ptr %3, align 8, !tbaa !14
  %37 = call noundef ptr @_ZN10duckdb_re26Regexp6IncrefEv(ptr noundef nonnull align 8 dereferenceable(40) %36)
  store ptr %37, ptr %2, align 8
  store i32 1, ptr %7, align 4
  br label %38

38:                                               ; preds = %35, %30, %17
  call void @llvm.lifetime.end.p0(i64 8, ptr %4) #17
  %39 = load ptr, ptr %2, align 8
  ret ptr %39

40:                                               ; preds = %31, %18
  call void @llvm.lifetime.end.p0(i64 8, ptr %4) #17
  br label %41

41:                                               ; preds = %40
  %42 = load ptr, ptr %5, align 8
  %43 = load i32, ptr %6, align 4
  %44 = insertvalue { ptr, i32 } poison, ptr %42, 0
  %45 = insertvalue { ptr, i32 } %44, i32 %43, 1
  resume { ptr, i32 } %45
}