; Function Attrs: mustprogress uwtable
define hidden noundef ptr @_ZN10duckdb_re214SimplifyWalker17SimplifyCharClassEPNS_6RegexpE(ptr noundef %0) local_unnamed_addr #0 align 2 personality ptr @__gxx_personality_v0 {
  %2 = getelementptr inbounds nuw i8, ptr %0, i64 24
  %3 = load ptr, ptr %2, align 8, !tbaa !21
  %4 = getelementptr inbounds nuw i8, ptr %3, i64 4
  %5 = load i32, ptr %4, align 4, !tbaa !64
  switch i32 %5, label %20 [
    i32 0, label %6
    i32 1114112, label %13
  ]

6:                                                ; preds = %1
  %7 = tail call noalias noundef nonnull dereferenceable(40) ptr @_Znwm(i64 noundef 40) #19
  %8 = getelementptr inbounds nuw i8, ptr %0, i64 2
  %9 = load i16, ptr %8, align 2, !tbaa !85
  %10 = zext i16 %9 to i32
  invoke void @_ZN10duckdb_re26RegexpC1ENS_8RegexpOpENS0_10ParseFlagsE(ptr noundef nonnull align 8 dereferenceable(40) %7, i32 noundef 1, i32 noundef %10)
          to label %22 unwind label %11

11:                                               ; preds = %6
  %12 = landingpad { ptr, i32 }
          cleanup
  br label %23

13:                                               ; preds = %1
  %14 = tail call noalias noundef nonnull dereferenceable(40) ptr @_Znwm(i64 noundef 40) #19
  %15 = getelementptr inbounds nuw i8, ptr %0, i64 2
  %16 = load i16, ptr %15, align 2, !tbaa !85
  %17 = zext i16 %16 to i32
  invoke void @_ZN10duckdb_re26RegexpC1ENS_8RegexpOpENS0_10ParseFlagsE(ptr noundef nonnull align 8 dereferenceable(40) %14, i32 noundef 12, i32 noundef %17)
          to label %22 unwind label %18

18:                                               ; preds = %13
  %19 = landingpad { ptr, i32 }
          cleanup
  br label %23

20:                                               ; preds = %1
  %21 = tail call noundef ptr @_ZN10duckdb_re26Regexp6IncrefEv(ptr noundef nonnull align 8 dereferenceable(40) %0)
  br label %22

22:                                               ; preds = %13, %6, %20
  %.09 = phi ptr [ %21, %20 ], [ %7, %6 ], [ %14, %13 ]
  ret ptr %.09

23:                                               ; preds = %18, %11
  %.sink = phi ptr [ %14, %18 ], [ %7, %11 ]
  %.pn = phi { ptr, i32 } [ %19, %18 ], [ %12, %11 ]
  tail call void @_ZdlPv(ptr noundef nonnull %.sink) #17
  resume { ptr, i32 } %.pn
}